; ModuleID = '39/1646.c'
source_filename = "39/1646.c"
target datalayout = "e-m:e-p270:32:32-p271:32:32-p272:64:64-i64:64-f80:128-n8:16:32:64-S128"
target triple = "x86_64-pc-linux-gnu"

@.str = private unnamed_addr constant [3 x i8] c"%d\00", align 1
@.str.1 = private unnamed_addr constant [3 x i8] c"%s\00", align 1
@.str.2 = private unnamed_addr constant [7 x i8] c" %c %c\00", align 1
@.str.3 = private unnamed_addr constant [4 x i8] c"%s\0A\00", align 1
@.str.4 = private unnamed_addr constant [4 x i8] c"%d\0A\00", align 1

; Function Attrs: noinline nounwind uwtable
define dso_local i32 @main() #0 {
  %1 = alloca i32, align 4
  %2 = alloca [100 x [21 x i8]], align 16
  %3 = alloca i32, align 4
  %4 = alloca i32, align 4
  %5 = alloca i32, align 4
  %6 = alloca i32, align 4
  %7 = alloca i32, align 4
  %8 = alloca i32, align 4
  %9 = alloca i32, align 4
  %10 = alloca i32, align 4
  %11 = alloca i8, align 1
  %12 = alloca i8, align 1
  %13 = alloca i32, align 4
  store i32 0, i32* %1, align 4
  store i32 0, i32* %4, align 4
  store i32 0, i32* %5, align 4
  store i32 0, i32* %7, align 4
  %14 = call i32 (i8*, ...) @__isoc99_scanf(i8* getelementptr inbounds ([3 x i8], [3 x i8]* @.str, i64 0, i64 0), i32* %3)
  store i32 0, i32* %8, align 4
  br label %15

15:                                               ; preds = %83, %0
  %16 = load i32, i32* %8, align 4
  %17 = load i32, i32* %3, align 4
  %18 = icmp slt i32 %16, %17
  br i1 %18, label %19, label %86

19:                                               ; preds = %15
  %20 = load i32, i32* %8, align 4
  %21 = sext i32 %20 to i64
  %22 = getelementptr inbounds [100 x [21 x i8]], [100 x [21 x i8]]* %2, i64 0, i64 %21
  %23 = getelementptr inbounds [21 x i8], [21 x i8]* %22, i64 0, i64 0
  %24 = call i32 (i8*, ...) @__isoc99_scanf(i8* getelementptr inbounds ([3 x i8], [3 x i8]* @.str.1, i64 0, i64 0), i8* %23)
  %25 = call i32 (i8*, ...) @__isoc99_scanf(i8* getelementptr inbounds ([3 x i8], [3 x i8]* @.str, i64 0, i64 0), i32* %9)
  %26 = call i32 (i8*, ...) @__isoc99_scanf(i8* getelementptr inbounds ([3 x i8], [3 x i8]* @.str, i64 0, i64 0), i32* %10)
  %27 = call i32 (i8*, ...) @__isoc99_scanf(i8* getelementptr inbounds ([7 x i8], [7 x i8]* @.str.2, i64 0, i64 0), i8* %11, i8* %12)
  %28 = call i32 (i8*, ...) @__isoc99_scanf(i8* getelementptr inbounds ([3 x i8], [3 x i8]* @.str, i64 0, i64 0), i32* %13)
  %29 = load i32, i32* %9, align 4
  %30 = icmp sgt i32 %29, 80
  br i1 %30, label %31, label %37

31:                                               ; preds = %19
  %32 = load i32, i32* %13, align 4
  %33 = icmp sge i32 %32, 1
  br i1 %33, label %34, label %37

34:                                               ; preds = %31
  %35 = load i32, i32* %4, align 4
  %36 = add nsw i32 %35, 8000
  store i32 %36, i32* %4, align 4
  br label %37

37:                                               ; preds = %34, %31, %19
  %38 = load i32, i32* %9, align 4
  %39 = icmp sgt i32 %38, 85
  br i1 %39, label %40, label %46

40:                                               ; preds = %37
  %41 = load i32, i32* %10, align 4
  %42 = icmp sgt i32 %41, 80
  br i1 %42, label %43, label %46

43:                                               ; preds = %40
  %44 = load i32, i32* %4, align 4
  %45 = add nsw i32 %44, 4000
  store i32 %45, i32* %4, align 4
  br label %46

46:                                               ; preds = %43, %40, %37
  %47 = load i32, i32* %9, align 4
  %48 = icmp sgt i32 %47, 90
  br i1 %48, label %49, label %52

49:                                               ; preds = %46
  %50 = load i32, i32* %4, align 4
  %51 = add nsw i32 %50, 2000
  store i32 %51, i32* %4, align 4
  br label %52

52:                                               ; preds = %49, %46
  %53 = load i32, i32* %9, align 4
  %54 = icmp sgt i32 %53, 85
  br i1 %54, label %55, label %62

55:                                               ; preds = %52
  %56 = load i8, i8* %12, align 1
  %57 = sext i8 %56 to i32
  %58 = icmp eq i32 %57, 89
  br i1 %58, label %59, label %62

59:                                               ; preds = %55
  %60 = load i32, i32* %4, align 4
  %61 = add nsw i32 %60, 1000
  store i32 %61, i32* %4, align 4
  br label %62

62:                                               ; preds = %59, %55, %52
  %63 = load i32, i32* %10, align 4
  %64 = icmp sgt i32 %63, 80
  br i1 %64, label %65, label %72

65:                                               ; preds = %62
  %66 = load i8, i8* %11, align 1
  %67 = sext i8 %66 to i32
  %68 = icmp eq i32 %67, 89
  br i1 %68, label %69, label %72

69:                                               ; preds = %65
  %70 = load i32, i32* %4, align 4
  %71 = add nsw i32 %70, 850
  store i32 %71, i32* %4, align 4
  br label %72

72:                                               ; preds = %69, %65, %62
  %73 = load i32, i32* %4, align 4
  %74 = load i32, i32* %5, align 4
  %75 = icmp sgt i32 %73, %74
  br i1 %75, label %76, label %79

76:                                               ; preds = %72
  %77 = load i32, i32* %4, align 4
  store i32 %77, i32* %5, align 4
  %78 = load i32, i32* %8, align 4
  store i32 %78, i32* %6, align 4
  br label %79

79:                                               ; preds = %76, %72
  %80 = load i32, i32* %4, align 4
  %81 = load i32, i32* %7, align 4
  %82 = add nsw i32 %81, %80
  store i32 %82, i32* %7, align 4
  store i32 0, i32* %4, align 4
  br label %83

83:                                               ; preds = %79
  %84 = load i32, i32* %8, align 4
  %85 = add nsw i32 %84, 1
  store i32 %85, i32* %8, align 4
  br label %15

86:                                               ; preds = %15
  %87 = load i32, i32* %6, align 4
  %88 = sext i32 %87 to i64
  %89 = getelementptr inbounds [100 x [21 x i8]], [100 x [21 x i8]]* %2, i64 0, i64 %88
  %90 = getelementptr inbounds [21 x i8], [21 x i8]* %89, i64 0, i64 0
  %91 = call i32 (i8*, ...) @printf(i8* getelementptr inbounds ([4 x i8], [4 x i8]* @.str.3, i64 0, i64 0), i8* %90)
  %92 = load i32, i32* %5, align 4
  %93 = call i32 (i8*, ...) @printf(i8* getelementptr inbounds ([4 x i8], [4 x i8]* @.str.4, i64 0, i64 0), i32 %92)
  %94 = load i32, i32* %7, align 4
  %95 = call i32 (i8*, ...) @printf(i8* getelementptr inbounds ([4 x i8], [4 x i8]* @.str.4, i64 0, i64 0), i32 %94)
  %96 = load i32, i32* %1, align 4
  ret i32 %96
}

declare dso_local i32 @__isoc99_scanf(i8*, ...) #1

declare dso_local i32 @printf(i8*, ...) #1


!llvm.module.flags = !{!0}
!llvm.ident = !{!1}

!0 = !{i32 1, !"wchar_size", i32 4}
!1 = !{!"clang version 10.0.0-4ubuntu1 "}
