; ModuleID = 'source-C-CXX/38/1646.c'
source_filename = "source-C-CXX/38/1646.c"
target datalayout = "e-m:e-p270:32:32-p271:32:32-p272:64:64-i64:64-f80:128-n8:16:32:64-S128"
target triple = "x86_64-pc-linux-gnu"

@.str = private unnamed_addr constant [3 x i8] c"%d\00", align 1
@.str.1 = private unnamed_addr constant [3 x i8] c"%s\00", align 1
@.str.2 = private unnamed_addr constant [7 x i8] c" %c %c\00", align 1
@.str.4 = private unnamed_addr constant [4 x i8] c"%d\0A\00", align 1

; Function Attrs: nofree nounwind sspstrong uwtable
define dso_local i32 @main() local_unnamed_addr #0 {
  %1 = alloca [100 x [21 x i8]], align 16
  %2 = alloca i32, align 4
  %3 = alloca i32, align 4
  %4 = alloca i32, align 4
  %5 = alloca i8, align 1
  %6 = alloca i8, align 1
  %7 = alloca i32, align 4
  %8 = getelementptr inbounds [100 x [21 x i8]], [100 x [21 x i8]]* %1, i64 0, i64 0, i64 0
  call void @llvm.lifetime.start.p0i8(i64 2100, i8* nonnull %8) #4
  %9 = bitcast i32* %2 to i8*
  call void @llvm.lifetime.start.p0i8(i64 4, i8* nonnull %9) #4
  %10 = call i32 (i8*, ...) @__isoc99_scanf(i8* getelementptr inbounds ([3 x i8], [3 x i8]* @.str, i64 0, i64 0), i32* nonnull %2)
  %11 = bitcast i32* %3 to i8*
  %12 = bitcast i32* %4 to i8*
  %13 = bitcast i32* %7 to i8*
  %14 = load i32, i32* %2, align 4, !tbaa !5
  %15 = icmp sgt i32 %14, 0
  br i1 %15, label %16, label %63

16:                                               ; preds = %0, %16
  %17 = phi i64 [ %57, %16 ], [ 0, %0 ]
  %18 = phi i32 [ %56, %16 ], [ 0, %0 ]
  %19 = phi i32 [ %55, %16 ], [ undef, %0 ]
  %20 = phi i32 [ %53, %16 ], [ 0, %0 ]
  call void @llvm.lifetime.start.p0i8(i64 4, i8* nonnull %11) #4
  call void @llvm.lifetime.start.p0i8(i64 4, i8* nonnull %12) #4
  call void @llvm.lifetime.start.p0i8(i64 1, i8* nonnull %5) #4
  call void @llvm.lifetime.start.p0i8(i64 1, i8* nonnull %6) #4
  call void @llvm.lifetime.start.p0i8(i64 4, i8* nonnull %13) #4
  %21 = getelementptr inbounds [100 x [21 x i8]], [100 x [21 x i8]]* %1, i64 0, i64 %17, i64 0
  %22 = call i32 (i8*, ...) @__isoc99_scanf(i8* getelementptr inbounds ([3 x i8], [3 x i8]* @.str.1, i64 0, i64 0), i8* nonnull %21)
  %23 = call i32 (i8*, ...) @__isoc99_scanf(i8* getelementptr inbounds ([3 x i8], [3 x i8]* @.str, i64 0, i64 0), i32* nonnull %3)
  %24 = call i32 (i8*, ...) @__isoc99_scanf(i8* getelementptr inbounds ([3 x i8], [3 x i8]* @.str, i64 0, i64 0), i32* nonnull %4)
  %25 = call i32 (i8*, ...) @__isoc99_scanf(i8* getelementptr inbounds ([7 x i8], [7 x i8]* @.str.2, i64 0, i64 0), i8* nonnull %5, i8* nonnull %6)
  %26 = call i32 (i8*, ...) @__isoc99_scanf(i8* getelementptr inbounds ([3 x i8], [3 x i8]* @.str, i64 0, i64 0), i32* nonnull %7)
  %27 = load i32, i32* %3, align 4, !tbaa !5
  %28 = icmp sgt i32 %27, 80
  %29 = load i32, i32* %7, align 4
  %30 = icmp sgt i32 %29, 0
  %31 = select i1 %28, i1 %30, i1 false
  %32 = select i1 %31, i32 8000, i32 0
  %33 = icmp sgt i32 %27, 85
  %34 = load i32, i32* %4, align 4
  %35 = icmp sgt i32 %34, 80
  %36 = select i1 %33, i1 %35, i1 false
  %37 = add nuw nsw i32 %32, 4000
  %38 = select i1 %36, i32 %37, i32 %32
  %39 = icmp sgt i32 %27, 90
  %40 = add nuw nsw i32 %38, 2000
  %41 = select i1 %39, i32 %40, i32 %38
  %42 = load i8, i8* %6, align 1
  %43 = icmp eq i8 %42, 89
  %44 = select i1 %33, i1 %43, i1 false
  %45 = add nuw nsw i32 %41, 1000
  %46 = select i1 %44, i32 %45, i32 %41
  %47 = load i8, i8* %5, align 1
  %48 = icmp eq i8 %47, 89
  %49 = select i1 %35, i1 %48, i1 false
  %50 = add nuw nsw i32 %46, 850
  %51 = select i1 %49, i32 %50, i32 %46
  %52 = icmp sgt i32 %51, %20
  %53 = select i1 %52, i32 %51, i32 %20
  %54 = trunc i64 %17 to i32
  %55 = select i1 %52, i32 %54, i32 %19
  %56 = add nsw i32 %51, %18
  call void @llvm.lifetime.end.p0i8(i64 4, i8* nonnull %13) #4
  call void @llvm.lifetime.end.p0i8(i64 1, i8* nonnull %6) #4
  call void @llvm.lifetime.end.p0i8(i64 1, i8* nonnull %5) #4
  call void @llvm.lifetime.end.p0i8(i64 4, i8* nonnull %12) #4
  call void @llvm.lifetime.end.p0i8(i64 4, i8* nonnull %11) #4
  %57 = add nuw nsw i64 %17, 1
  %58 = load i32, i32* %2, align 4, !tbaa !5
  %59 = sext i32 %58 to i64
  %60 = icmp slt i64 %57, %59
  br i1 %60, label %16, label %61, !llvm.loop !9

61:                                               ; preds = %16
  %62 = sext i32 %55 to i64
  br label %63

63:                                               ; preds = %61, %0
  %64 = phi i32 [ 0, %0 ], [ %53, %61 ]
  %65 = phi i64 [ 0, %0 ], [ %62, %61 ]
  %66 = phi i32 [ 0, %0 ], [ %56, %61 ]
  %67 = getelementptr inbounds [100 x [21 x i8]], [100 x [21 x i8]]* %1, i64 0, i64 %65, i64 0
  %68 = call i32 @puts(i8* nonnull %67)
  %69 = call i32 (i8*, ...) @printf(i8* nonnull dereferenceable(1) getelementptr inbounds ([4 x i8], [4 x i8]* @.str.4, i64 0, i64 0), i32 %64)
  %70 = call i32 (i8*, ...) @printf(i8* nonnull dereferenceable(1) getelementptr inbounds ([4 x i8], [4 x i8]* @.str.4, i64 0, i64 0), i32 %66)
  call void @llvm.lifetime.end.p0i8(i64 4, i8* nonnull %9) #4
  call void @llvm.lifetime.end.p0i8(i64 2100, i8* nonnull %8) #4
  ret i32 0
}

; Function Attrs: argmemonly mustprogress nofree nosync nounwind willreturn
declare void @llvm.lifetime.start.p0i8(i64 immarg, i8* nocapture) #1

; Function Attrs: nofree nounwind
declare noundef i32 @__isoc99_scanf(i8* nocapture noundef readonly, ...) local_unnamed_addr #2

; Function Attrs: argmemonly mustprogress nofree nosync nounwind willreturn
declare void @llvm.lifetime.end.p0i8(i64 immarg, i8* nocapture) #1

; Function Attrs: nofree nounwind
declare noundef i32 @printf(i8* nocapture noundef readonly, ...) local_unnamed_addr #2

; Function Attrs: nofree nounwind
declare noundef i32 @puts(i8* nocapture noundef readonly) local_unnamed_addr #3


!llvm.module.flags = !{!0, !1, !2, !3}
!llvm.ident = !{!4}

!0 = !{i32 1, !"wchar_size", i32 4}
!1 = !{i32 7, !"PIC Level", i32 2}
!2 = !{i32 7, !"PIE Level", i32 2}
!3 = !{i32 7, !"uwtable", i32 1}
!4 = !{!"clang version 13.0.0"}
!5 = !{!6, !6, i64 0}
!6 = !{!"int", !7, i64 0}
!7 = !{!"omnipotent char", !8, i64 0}
!8 = !{!"Simple C/C++ TBAA"}
!9 = distinct !{!9, !10}
!10 = !{!"llvm.loop.mustprogress"}
